---
triple:          'arm64-apple-darwin'
binary-path:     '/Users/kinshul/Desktop/c++project/Criminal-Record-/main'
relocations:
  - { offsetInCU: 0x4D5A, offset: 0x4D5A, size: 0x8, addend: 0x0, symName: __ZNSt3__124__put_character_sequenceB8ue170006IcNS_11char_traitsIcEEEERNS_13basic_ostreamIT_T0_EES7_PKS4_m, symObjAddr: 0x4E70, symBinAddr: 0x100005928, symSize: 0x1F4 }
  - { offsetInCU: 0x6AAC, offset: 0x6AAC, size: 0x8, addend: 0x0, symName: __ZNSt3__1lsB8ue170006INS_11char_traitsIcEEEERNS_13basic_ostreamIcT_EES6_PKc, symObjAddr: 0x3C4, symBinAddr: 0x100000E7C, symSize: 0x48 }
  - { offsetInCU: 0x6AF2, offset: 0x6AF2, size: 0x8, addend: 0x0, symName: __ZNSt3__17getlineB8ue170006IcNS_11char_traitsIcEENS_9allocatorIcEEEERNS_13basic_istreamIT_T0_EES9_RNS_12basic_stringIS6_S7_T1_EE, symObjAddr: 0x40C, symBinAddr: 0x100000EC4, symSize: 0x5C }
  - { offsetInCU: 0x6B4A, offset: 0x6B4A, size: 0x8, addend: 0x0, symName: __ZNSt3__1eqB8ue170006IcNS_11char_traitsIcEENS_9allocatorIcEEEEbRKNS_12basic_stringIT_T0_T1_EEPKS6_, symObjAddr: 0x468, symBinAddr: 0x100000F20, symSize: 0xC0 }
  - { offsetInCU: 0x6DBD, offset: 0x6DBD, size: 0x8, addend: 0x0, symName: __ZNSt3__112__to_addressB8ue170006I8CriminalEEPT_S3_, symObjAddr: 0x1BF4, symBinAddr: 0x1000026AC, symSize: 0x14 }
  - { offsetInCU: 0x6DF2, offset: 0x6DF2, size: 0x8, addend: 0x0, symName: __ZNSt3__13maxB8ue170006ImEERKT_S3_S3_, symObjAddr: 0x24F0, symBinAddr: 0x100002FA8, symSize: 0x2C }
  - { offsetInCU: 0x6E35, offset: 0x6E35, size: 0x8, addend: 0x0, symName: __ZNSt3__13minB8ue170006ImEERKT_S3_S3_, symObjAddr: 0x251C, symBinAddr: 0x100002FD4, symSize: 0x2C }
  - { offsetInCU: 0x6E78, offset: 0x6E78, size: 0x8, addend: 0x0, symName: __ZNSt3__13minB8ue170006ImNS_6__lessIvvEEEERKT_S5_S5_T0_, symObjAddr: 0x2594, symBinAddr: 0x10000304C, symSize: 0x54 }
  - { offsetInCU: 0x6F17, offset: 0x6F17, size: 0x8, addend: 0x0, symName: __ZNSt3__120__throw_length_errorB8ue170006EPKc, symObjAddr: 0x2674, symBinAddr: 0x10000312C, symSize: 0x64 }
  - { offsetInCU: 0x6F41, offset: 0x6F41, size: 0x8, addend: 0x0, symName: __ZNSt3__13maxB8ue170006ImNS_6__lessIvvEEEERKT_S5_S5_T0_, symObjAddr: 0x27B8, symBinAddr: 0x100003270, symSize: 0x54 }
  - { offsetInCU: 0x6F9B, offset: 0x6F9B, size: 0x8, addend: 0x0, symName: __ZNSt3__119__allocate_at_leastB8ue170006INS_9allocatorI8CriminalEEEENS_19__allocation_resultINS_16allocator_traitsIT_E7pointerEEERS6_m, symObjAddr: 0x2928, symBinAddr: 0x1000033E0, symSize: 0x40 }
  - { offsetInCU: 0x6FDE, offset: 0x6FDE, size: 0x8, addend: 0x0, symName: __ZNSt3__130__libcpp_is_constant_evaluatedB8ue170006Ev, symObjAddr: 0x2AE0, symBinAddr: 0x100003598, symSize: 0xC }
  - { offsetInCU: 0x6FFB, offset: 0x6FFB, size: 0x8, addend: 0x0, symName: __ZNSt3__117__libcpp_allocateB8ue170006Emm, symObjAddr: 0x2AEC, symBinAddr: 0x1000035A4, symSize: 0x28 }
  - { offsetInCU: 0x7038, offset: 0x7038, size: 0x8, addend: 0x0, symName: __ZNSt3__121__libcpp_operator_newB8ue170006IJmEEEPvDpT_, symObjAddr: 0x2B14, symBinAddr: 0x1000035CC, symSize: 0x24 }
  - { offsetInCU: 0x7071, offset: 0x7071, size: 0x8, addend: 0x0, symName: __ZNSt3__142__uninitialized_allocator_move_if_noexceptB8ue170006INS_9allocatorI8CriminalEENS_16reverse_iteratorIPS2_EES6_S6_EET2_RT_T0_T1_S7_, symObjAddr: 0x2C70, symBinAddr: 0x100003728, symSize: 0x134 }
  - { offsetInCU: 0x7111, offset: 0x7111, size: 0x8, addend: 0x0, symName: __ZNSt3__14swapB8ue170006IP8CriminalEEvRT_S4_, symObjAddr: 0x2DF0, symBinAddr: 0x1000038A8, symSize: 0x3C }
  - { offsetInCU: 0x7162, offset: 0x7162, size: 0x8, addend: 0x0, symName: __ZNSt3__122__make_exception_guardB8ue170006INS_29_AllocatorDestroyRangeReverseINS_9allocatorI8CriminalEENS_16reverse_iteratorIPS3_EEEEEENS_28__exception_guard_exceptionsIT_EESA_, symObjAddr: 0x2F3C, symBinAddr: 0x1000039F4, symSize: 0x4C }
  - { offsetInCU: 0x7198, offset: 0x7198, size: 0x8, addend: 0x0, symName: __ZNSt3__1neB8ue170006IP8CriminalS2_EEbRKNS_16reverse_iteratorIT_EERKNS3_IT0_EE, symObjAddr: 0x2FCC, symBinAddr: 0x100003A84, symSize: 0x48 }
  - { offsetInCU: 0x71E4, offset: 0x71E4, size: 0x8, addend: 0x0, symName: __ZNSt3__112__to_addressB8ue170006INS_16reverse_iteratorIP8CriminalEEvEEu7__decayIDTclsr19__to_address_helperIT_EE6__callclsr3stdE7declvalIRKS5_EEEEES7_, symObjAddr: 0x3014, symBinAddr: 0x100003ACC, symSize: 0x24 }
  - { offsetInCU: 0x7243, offset: 0x7243, size: 0x8, addend: 0x0, symName: __ZNSt3__119__allocator_destroyB8ue170006INS_9allocatorI8CriminalEENS_16reverse_iteratorINS4_IPS2_EEEES7_EEvRT_T0_T1_, symObjAddr: 0x32D0, symBinAddr: 0x100003D88, symSize: 0x70 }
  - { offsetInCU: 0x72A8, offset: 0x72A8, size: 0x8, addend: 0x0, symName: __ZNSt3__1neB8ue170006INS_16reverse_iteratorIP8CriminalEES4_EEbRKNS1_IT_EERKNS1_IT0_EE, symObjAddr: 0x337C, symBinAddr: 0x100003E34, symSize: 0x60 }
  - { offsetInCU: 0x72F4, offset: 0x72F4, size: 0x8, addend: 0x0, symName: __ZNSt3__112__to_addressB8ue170006INS_16reverse_iteratorINS1_IP8CriminalEEEEvEEu7__decayIDTclsr19__to_address_helperIT_EE6__callclsr3stdE7declvalIRKS6_EEEEES8_, symObjAddr: 0x3408, symBinAddr: 0x100003EC0, symSize: 0x24 }
  - { offsetInCU: 0x7353, offset: 0x7353, size: 0x8, addend: 0x0, symName: __ZNSt3__119__libcpp_deallocateB8ue170006EPvmm, symObjAddr: 0x3810, symBinAddr: 0x1000042C8, symSize: 0x30 }
  - { offsetInCU: 0x739B, offset: 0x739B, size: 0x8, addend: 0x0, symName: __ZNSt3__127__do_deallocate_handle_sizeB8ue170006IJEEEvPvmDpT_, symObjAddr: 0x3840, symBinAddr: 0x1000042F8, symSize: 0x28 }
  - { offsetInCU: 0x73D9, offset: 0x73D9, size: 0x8, addend: 0x0, symName: __ZNSt3__124__libcpp_operator_deleteB8ue170006IJPvEEEvDpT_, symObjAddr: 0x3868, symBinAddr: 0x100004320, symSize: 0x24 }
  - { offsetInCU: 0x740E, offset: 0x740E, size: 0x8, addend: 0x0, symName: __ZNSt3__1eqB8ue170006INS_9allocatorIcEEEEbRKNS_12basic_stringIcNS_11char_traitsIcEET_EES9_, symObjAddr: 0x3AD4, symBinAddr: 0x10000458C, symSize: 0x148 }
  - { offsetInCU: 0x7481, offset: 0x7481, size: 0x8, addend: 0x0, symName: __ZNSt3__112__to_addressB8ue170006IKcEEPT_S3_, symObjAddr: 0x3E6C, symBinAddr: 0x100004924, symSize: 0x14 }
  - { offsetInCU: 0x7505, offset: 0x7505, size: 0x8, addend: 0x0, symName: __ZNSt3__1miB8ue170006IPK8CriminalS3_EENS_11__wrap_iterIT_E15difference_typeERKS6_RKNS4_IT0_EE, symObjAddr: 0x407C, symBinAddr: 0x100004B34, symSize: 0x48 }
  - { offsetInCU: 0x7551, offset: 0x7551, size: 0x8, addend: 0x0, symName: __ZNSt3__14moveB8ue170006IP8CriminalS2_EET0_T_S4_S3_, symObjAddr: 0x413C, symBinAddr: 0x100004BF4, symSize: 0x40 }
  - { offsetInCU: 0x75AB, offset: 0x75AB, size: 0x8, addend: 0x0, symName: __ZNSt3__16__moveB8ue170006INS_17_ClassicAlgPolicyEP8CriminalS3_S3_EENS_4pairIT0_T2_EES5_T1_S6_, symObjAddr: 0x43E8, symBinAddr: 0x100004EA0, symSize: 0x44 }
  - { offsetInCU: 0x7617, offset: 0x7617, size: 0x8, addend: 0x0, symName: __ZNSt3__123__dispatch_copy_or_moveB8ue170006INS_17_ClassicAlgPolicyENS_11__move_loopIS1_EENS_14__move_trivialEP8CriminalS6_S6_EENS_4pairIT2_T4_EES8_T3_S9_, symObjAddr: 0x442C, symBinAddr: 0x100004EE4, symSize: 0x44 }
  - { offsetInCU: 0x7695, offset: 0x7695, size: 0x8, addend: 0x0, symName: __ZNSt3__121__unwrap_and_dispatchB8ue170006INS_10__overloadINS_11__move_loopINS_17_ClassicAlgPolicyEEENS_14__move_trivialEEEP8CriminalS8_S8_Li0EEENS_4pairIT0_T2_EESA_T1_SB_, symObjAddr: 0x4470, symBinAddr: 0x100004F28, symSize: 0xB4 }
  - { offsetInCU: 0x7723, offset: 0x7723, size: 0x8, addend: 0x0, symName: __ZNSt3__114__unwrap_rangeB8ue170006IP8CriminalS2_EENS_4pairIT0_S4_EET_S6_, symObjAddr: 0x4524, symBinAddr: 0x100004FDC, symSize: 0x60 }
  - { offsetInCU: 0x7877, offset: 0x7877, size: 0x8, addend: 0x0, symName: __ZNSt3__113__unwrap_iterB8ue170006IP8CriminalNS_18__unwrap_iter_implIS2_Lb1EEELi0EEEDTclsrT0_8__unwrapclsr3stdE7declvalIT_EEEES6_, symObjAddr: 0x4614, symBinAddr: 0x1000050CC, symSize: 0x24 }
  - { offsetInCU: 0x78BB, offset: 0x78BB, size: 0x8, addend: 0x0, symName: __ZNSt3__19make_pairB8ue170006IP8CriminalS2_EENS_4pairINS_18__unwrap_ref_decayIT_E4typeENS4_IT0_E4typeEEEOS5_OS8_, symObjAddr: 0x4638, symBinAddr: 0x1000050F0, symSize: 0x38 }
  - { offsetInCU: 0x790A, offset: 0x790A, size: 0x8, addend: 0x0, symName: __ZNSt3__114__rewrap_rangeB8ue170006IP8CriminalS2_EET_S3_T0_, symObjAddr: 0x4670, symBinAddr: 0x100005128, symSize: 0x2C }
  - { offsetInCU: 0x7956, offset: 0x7956, size: 0x8, addend: 0x0, symName: __ZNSt3__113__rewrap_iterB8ue170006IP8CriminalS2_NS_18__unwrap_iter_implIS2_Lb1EEEEET_S5_T0_, symObjAddr: 0x469C, symBinAddr: 0x100005154, symSize: 0x50 }
  - { offsetInCU: 0x7A68, offset: 0x7A68, size: 0x8, addend: 0x0, symName: __ZNSt3__1lsB8ue170006IcNS_11char_traitsIcEENS_9allocatorIcEEEERNS_13basic_ostreamIT_T0_EES9_RKNS_12basic_stringIS6_S7_T1_EE, symObjAddr: 0x4DA0, symBinAddr: 0x100005858, symSize: 0x4C }
  - { offsetInCU: 0x7AC0, offset: 0x7AC0, size: 0x8, addend: 0x0, symName: __ZNSt3__14endlB8ue170006IcNS_11char_traitsIcEEEERNS_13basic_ostreamIT_T0_EES7_, symObjAddr: 0x4E18, symBinAddr: 0x1000058D0, symSize: 0x58 }
  - { offsetInCU: 0x7B00, offset: 0x7B00, size: 0x8, addend: 0x0, symName: __ZNSt3__116__pad_and_outputB8ue170006IcNS_11char_traitsIcEEEENS_19ostreambuf_iteratorIT_T0_EES6_PKS4_S8_S8_RNS_8ios_baseES4_, symObjAddr: 0x5080, symBinAddr: 0x100005B38, symSize: 0x248 }
  - { offsetInCU: 0x7BCF, offset: 0x7BCF, size: 0x8, addend: 0x0, symName: __ZNSt3__19use_facetB8ue170006INS_5ctypeIcEEEERKT_RKNS_6localeE, symObjAddr: 0x5720, symBinAddr: 0x1000061D8, symSize: 0x2C }
  - { offsetInCU: 0x809C, offset: 0x809C, size: 0x8, addend: 0x0, symName: __ZNSt3__118__constexpr_strlenB8ue170006EPKc, symObjAddr: 0x5DB4, symBinAddr: 0x10000686C, symSize: 0x24 }
  - { offsetInCU: 0x80C8, offset: 0x80C8, size: 0x8, addend: 0x0, symName: __ZNSt3__17getlineB8ue170006IcNS_11char_traitsIcEENS_9allocatorIcEEEERNS_13basic_istreamIT_T0_EES9_RNS_12basic_stringIS6_S7_T1_EES6_, symObjAddr: 0x5DD8, symBinAddr: 0x100006890, symSize: 0x238 }
  - { offsetInCU: 0x8B24, offset: 0x8B24, size: 0x8, addend: 0x0, symName: __ZSt28__throw_bad_array_new_lengthB8ue170006v, symObjAddr: 0x2AAC, symBinAddr: 0x100003564, symSize: 0x34 }
  - { offsetInCU: 0x9274, offset: 0x9274, size: 0x8, addend: 0x0, symName: __ZNSt3__16vectorI8CriminalNS_9allocatorIS1_EEE26__swap_out_circular_bufferERNS_14__split_bufferIS1_RS3_EE, symObjAddr: 0x22E4, symBinAddr: 0x100002D9C, symSize: 0x110 }
  - { offsetInCU: 0xB731, offset: 0xB731, size: 0x8, addend: 0x0, symName: __Z11isvalidDateiii, symObjAddr: 0x0, symBinAddr: 0x100000AB8, symSize: 0x284 }
  - { offsetInCU: 0xB78C, offset: 0xB78C, size: 0x8, addend: 0x0, symName: __Z11getvalidSexv, symObjAddr: 0x284, symBinAddr: 0x100000D3C, symSize: 0x114 }
  - { offsetInCU: 0xB7BC, offset: 0xB7BC, size: 0x8, addend: 0x0, symName: __ZNSt3__112basic_stringIcNS_11char_traitsIcEENS_9allocatorIcEEEC1B8ue170006Ev, symObjAddr: 0x398, symBinAddr: 0x100000E50, symSize: 0x2C }
  - { offsetInCU: 0xB7E4, offset: 0xB7E4, size: 0x8, addend: 0x0, symName: __Z26getvalidIdentificationMarkv, symObjAddr: 0x534, symBinAddr: 0x100000FEC, symSize: 0xBC }
  - { offsetInCU: 0xB814, offset: 0xB814, size: 0x8, addend: 0x0, symName: _main, symObjAddr: 0x5F0, symBinAddr: 0x1000010A8, symSize: 0x1E4 }
  - { offsetInCU: 0xB8D2, offset: 0xB8D2, size: 0x8, addend: 0x0, symName: __ZN15Criminal_recordC1Ev, symObjAddr: 0x7E8, symBinAddr: 0x1000012A0, symSize: 0x2C }
  - { offsetInCU: 0xB8FB, offset: 0xB8FB, size: 0x8, addend: 0x0, symName: __ZNSt3__111char_traitsIcE3eofB8ue170006Ev, symObjAddr: 0x814, symBinAddr: 0x1000012CC, symSize: 0x8 }
  - { offsetInCU: 0xB90F, offset: 0xB90F, size: 0x8, addend: 0x0, symName: __ZN15Criminal_record9addRecordEv, symObjAddr: 0x81C, symBinAddr: 0x1000012D4, symSize: 0xA0 }
  - { offsetInCU: 0xB943, offset: 0xB943, size: 0x8, addend: 0x0, symName: __ZN15Criminal_record12modifyRecordEv, symObjAddr: 0x8BC, symBinAddr: 0x100001374, symSize: 0x18C }
  - { offsetInCU: 0xB99B, offset: 0xB99B, size: 0x8, addend: 0x0, symName: __ZN15Criminal_record12deleteRecordEv, symObjAddr: 0xA48, symBinAddr: 0x100001500, symSize: 0x1B0 }
  - { offsetInCU: 0xB9F3, offset: 0xB9F3, size: 0x8, addend: 0x0, symName: __ZN15Criminal_record13displayRecordEv, symObjAddr: 0xBF8, symBinAddr: 0x1000016B0, symSize: 0x15C }
  - { offsetInCU: 0xBA4B, offset: 0xBA4B, size: 0x8, addend: 0x0, symName: __ZN15Criminal_recordD1Ev, symObjAddr: 0xD54, symBinAddr: 0x10000180C, symSize: 0x2C }
  - { offsetInCU: 0xBA77, offset: 0xBA77, size: 0x8, addend: 0x0, symName: __ZN15Criminal_recordC2Ev, symObjAddr: 0xD80, symBinAddr: 0x100001838, symSize: 0x2C }
  - { offsetInCU: 0xBAA0, offset: 0xBAA0, size: 0x8, addend: 0x0, symName: __ZNSt3__16vectorI8CriminalNS_9allocatorIS1_EEEC1B8ue170006Ev, symObjAddr: 0xDAC, symBinAddr: 0x100001864, symSize: 0x2C }
  - { offsetInCU: 0xBAC9, offset: 0xBAC9, size: 0x8, addend: 0x0, symName: __ZNSt3__16vectorI8CriminalNS_9allocatorIS1_EEEC2B8ue170006Ev, symObjAddr: 0xDD8, symBinAddr: 0x100001890, symSize: 0x44 }
  - { offsetInCU: 0xBAFC, offset: 0xBAFC, size: 0x8, addend: 0x0, symName: __ZNSt3__117__compressed_pairIP8CriminalNS_9allocatorIS1_EEEC1B8ue170006IDnNS_18__default_init_tagEEEOT_OT0_, symObjAddr: 0xE1C, symBinAddr: 0x1000018D4, symSize: 0x3C }
  - { offsetInCU: 0xBB53, offset: 0xBB53, size: 0x8, addend: 0x0, symName: __ZNSt3__117__compressed_pairIP8CriminalNS_9allocatorIS1_EEEC2B8ue170006IDnNS_18__default_init_tagEEEOT_OT0_, symObjAddr: 0xE58, symBinAddr: 0x100001910, symSize: 0x40 }
  - { offsetInCU: 0xBBAA, offset: 0xBBAA, size: 0x8, addend: 0x0, symName: __ZNSt3__122__compressed_pair_elemIP8CriminalLi0ELb0EEC2B8ue170006IDnvEEOT_, symObjAddr: 0xE98, symBinAddr: 0x100001950, symSize: 0x1C }
  - { offsetInCU: 0xBBEB, offset: 0xBBEB, size: 0x8, addend: 0x0, symName: __ZNSt3__122__compressed_pair_elemINS_9allocatorI8CriminalEELi1ELb1EEC2B8ue170006ENS_18__default_init_tagE, symObjAddr: 0xEB4, symBinAddr: 0x10000196C, symSize: 0x2C }
  - { offsetInCU: 0xBC1F, offset: 0xBC1F, size: 0x8, addend: 0x0, symName: __ZNSt3__19allocatorI8CriminalEC2B8ue170006Ev, symObjAddr: 0xEE0, symBinAddr: 0x100001998, symSize: 0x2C }
  - { offsetInCU: 0xBC48, offset: 0xBC48, size: 0x8, addend: 0x0, symName: __ZNSt3__116__non_trivial_ifILb1ENS_9allocatorI8CriminalEEEC2B8ue170006Ev, symObjAddr: 0xF0C, symBinAddr: 0x1000019C4, symSize: 0x14 }
  - { offsetInCU: 0xBC71, offset: 0xBC71, size: 0x8, addend: 0x0, symName: __ZN8CriminalC1Ev, symObjAddr: 0xF20, symBinAddr: 0x1000019D8, symSize: 0x2C }
  - { offsetInCU: 0xBC9A, offset: 0xBC9A, size: 0x8, addend: 0x0, symName: __ZN8Criminal5inputEv, symObjAddr: 0xF4C, symBinAddr: 0x100001A04, symSize: 0x388 }
  - { offsetInCU: 0xBCBE, offset: 0xBCBE, size: 0x8, addend: 0x0, symName: __ZNSt3__16vectorI8CriminalNS_9allocatorIS1_EEE9push_backB8ue170006ERKS1_, symObjAddr: 0x12D4, symBinAddr: 0x100001D8C, symSize: 0x6C }
  - { offsetInCU: 0xBCF4, offset: 0xBCF4, size: 0x8, addend: 0x0, symName: __ZN8CriminalD1Ev, symObjAddr: 0x1340, symBinAddr: 0x100001DF8, symSize: 0x2C }
  - { offsetInCU: 0xBD20, offset: 0xBD20, size: 0x8, addend: 0x0, symName: __ZN8CriminalC2Ev, symObjAddr: 0x136C, symBinAddr: 0x100001E24, symSize: 0x16C }
  - { offsetInCU: 0xBD4E, offset: 0xBD4E, size: 0x8, addend: 0x0, symName: __ZN11DescriptionC1Ev, symObjAddr: 0x14D8, symBinAddr: 0x100001F90, symSize: 0x2C }
  - { offsetInCU: 0xBD7F, offset: 0xBD7F, size: 0x8, addend: 0x0, symName: __ZN5CourtC1Ev, symObjAddr: 0x1504, symBinAddr: 0x100001FBC, symSize: 0x2C }
  - { offsetInCU: 0xBDB0, offset: 0xBDB0, size: 0x8, addend: 0x0, symName: __ZN6PoliceC1Ev, symObjAddr: 0x1530, symBinAddr: 0x100001FE8, symSize: 0x2C }
  - { offsetInCU: 0xBDDC, offset: 0xBDDC, size: 0x8, addend: 0x0, symName: __ZN5CourtD1Ev, symObjAddr: 0x155C, symBinAddr: 0x100002014, symSize: 0x2C }
  - { offsetInCU: 0xBE08, offset: 0xBE08, size: 0x8, addend: 0x0, symName: __ZN11DescriptionD1Ev, symObjAddr: 0x1588, symBinAddr: 0x100002040, symSize: 0x2C }
  - { offsetInCU: 0xBE34, offset: 0xBE34, size: 0x8, addend: 0x0, symName: __ZN11DescriptionC2Ev, symObjAddr: 0x15B4, symBinAddr: 0x10000206C, symSize: 0x9C }
  - { offsetInCU: 0xBE60, offset: 0xBE60, size: 0x8, addend: 0x0, symName: __ZN5CourtC2Ev, symObjAddr: 0x1650, symBinAddr: 0x100002108, symSize: 0xD0 }
  - { offsetInCU: 0xBE8C, offset: 0xBE8C, size: 0x8, addend: 0x0, symName: __ZN6PoliceC2Ev, symObjAddr: 0x1720, symBinAddr: 0x1000021D8, symSize: 0x68 }
  - { offsetInCU: 0xBEB8, offset: 0xBEB8, size: 0x8, addend: 0x0, symName: __ZN5CourtD2Ev, symObjAddr: 0x1788, symBinAddr: 0x100002240, symSize: 0xCC }
  - { offsetInCU: 0xBEE4, offset: 0xBEE4, size: 0x8, addend: 0x0, symName: __ZN11DescriptionD2Ev, symObjAddr: 0x1854, symBinAddr: 0x10000230C, symSize: 0x98 }
  - { offsetInCU: 0xBF10, offset: 0xBF10, size: 0x8, addend: 0x0, symName: __ZNKSt3__19basic_iosIcNS_11char_traitsIcEEE4failB8ue170006Ev, symObjAddr: 0x18EC, symBinAddr: 0x1000023A4, symSize: 0x28 }
  - { offsetInCU: 0xBF35, offset: 0xBF35, size: 0x8, addend: 0x0, symName: __ZNSt3__19basic_iosIcNS_11char_traitsIcEEE5clearB8ue170006Ej, symObjAddr: 0x1914, symBinAddr: 0x1000023CC, symSize: 0x2C }
  - { offsetInCU: 0xBF69, offset: 0xBF69, size: 0x8, addend: 0x0, symName: __ZNSt3__114numeric_limitsIlE3maxB8ue170006Ev, symObjAddr: 0x1940, symBinAddr: 0x1000023F8, symSize: 0x14 }
  - { offsetInCU: 0xBF7D, offset: 0xBF7D, size: 0x8, addend: 0x0, symName: __ZNKSt3__18ios_base4failB8ue170006Ev, symObjAddr: 0x1954, symBinAddr: 0x10000240C, symSize: 0x28 }
  - { offsetInCU: 0xBFA4, offset: 0xBFA4, size: 0x8, addend: 0x0, symName: __ZNSt3__123__libcpp_numeric_limitsIlLb1EE3maxB8ue170006Ev, symObjAddr: 0x197C, symBinAddr: 0x100002434, symSize: 0x8 }
  - { offsetInCU: 0xBFB8, offset: 0xBFB8, size: 0x8, addend: 0x0, symName: __ZNSt3__16vectorI8CriminalNS_9allocatorIS1_EEE9__end_capB8ue170006Ev, symObjAddr: 0x1984, symBinAddr: 0x10000243C, symSize: 0x28 }
  - { offsetInCU: 0xBFDD, offset: 0xBFDD, size: 0x8, addend: 0x0, symName: __ZNSt3__16vectorI8CriminalNS_9allocatorIS1_EEE22__construct_one_at_endB8ue170006IJRKS1_EEEvDpOT_, symObjAddr: 0x19AC, symBinAddr: 0x100002464, symSize: 0x98 }
  - { offsetInCU: 0xC02A, offset: 0xC02A, size: 0x8, addend: 0x0, symName: __ZNSt3__16vectorI8CriminalNS_9allocatorIS1_EEE21__push_back_slow_pathIRKS1_EEvOT_, symObjAddr: 0x1A44, symBinAddr: 0x1000024FC, symSize: 0xE0 }
  - { offsetInCU: 0xC087, offset: 0xC087, size: 0x8, addend: 0x0, symName: __ZNSt3__117__compressed_pairIP8CriminalNS_9allocatorIS1_EEE5firstB8ue170006Ev, symObjAddr: 0x1B24, symBinAddr: 0x1000025DC, symSize: 0x24 }
  - { offsetInCU: 0xC0AC, offset: 0xC0AC, size: 0x8, addend: 0x0, symName: __ZNSt3__122__compressed_pair_elemIP8CriminalLi0ELb0EE5__getB8ue170006Ev, symObjAddr: 0x1B48, symBinAddr: 0x100002600, symSize: 0x14 }
  - { offsetInCU: 0xC0EA, offset: 0xC0EA, size: 0x8, addend: 0x0, symName: __ZNSt3__16vectorI8CriminalNS_9allocatorIS1_EEE21_ConstructTransactionC1B8ue170006ERS4_m, symObjAddr: 0x1B5C, symBinAddr: 0x100002614, symSize: 0x3C }
  - { offsetInCU: 0xC131, offset: 0xC131, size: 0x8, addend: 0x0, symName: __ZNSt3__116allocator_traitsINS_9allocatorI8CriminalEEE9constructB8ue170006IS2_JRKS2_EvEEvRS3_PT_DpOT0_, symObjAddr: 0x1B98, symBinAddr: 0x100002650, symSize: 0x34 }
  - { offsetInCU: 0xC188, offset: 0xC188, size: 0x8, addend: 0x0, symName: __ZNSt3__16vectorI8CriminalNS_9allocatorIS1_EEE7__allocB8ue170006Ev, symObjAddr: 0x1BCC, symBinAddr: 0x100002684, symSize: 0x28 }
  - { offsetInCU: 0xC1AD, offset: 0xC1AD, size: 0x8, addend: 0x0, symName: __ZNSt3__16vectorI8CriminalNS_9allocatorIS1_EEE21_ConstructTransactionD1B8ue170006Ev, symObjAddr: 0x1C08, symBinAddr: 0x1000026C0, symSize: 0x2C }
  - { offsetInCU: 0xC1D6, offset: 0xC1D6, size: 0x8, addend: 0x0, symName: __ZNSt3__16vectorI8CriminalNS_9allocatorIS1_EEE21_ConstructTransactionC2B8ue170006ERS4_m, symObjAddr: 0x1C34, symBinAddr: 0x1000026EC, symSize: 0x4C }
  - { offsetInCU: 0xC21D, offset: 0xC21D, size: 0x8, addend: 0x0, symName: __ZNSt3__19allocatorI8CriminalE9constructB8ue170006IS1_JRKS1_EEEvPT_DpOT0_, symObjAddr: 0x1C80, symBinAddr: 0x100002738, symSize: 0x30 }
  - { offsetInCU: 0xC272, offset: 0xC272, size: 0x8, addend: 0x0, symName: __ZN8CriminalC1ERKS_, symObjAddr: 0x1CB0, symBinAddr: 0x100002768, symSize: 0x34 }
  - { offsetInCU: 0xC2A7, offset: 0xC2A7, size: 0x8, addend: 0x0, symName: __ZN8CriminalC2ERKS_, symObjAddr: 0x1CE4, symBinAddr: 0x10000279C, symSize: 0x1C4 }
  - { offsetInCU: 0xC2E6, offset: 0xC2E6, size: 0x8, addend: 0x0, symName: __ZN11DescriptionC1ERKS_, symObjAddr: 0x1EA8, symBinAddr: 0x100002960, symSize: 0x34 }
  - { offsetInCU: 0xC325, offset: 0xC325, size: 0x8, addend: 0x0, symName: __ZN5CourtC1ERKS_, symObjAddr: 0x1EDC, symBinAddr: 0x100002994, symSize: 0x34 }
  - { offsetInCU: 0xC364, offset: 0xC364, size: 0x8, addend: 0x0, symName: __ZN6PoliceC1ERKS_, symObjAddr: 0x1F10, symBinAddr: 0x1000029C8, symSize: 0x34 }
  - { offsetInCU: 0xC399, offset: 0xC399, size: 0x8, addend: 0x0, symName: __ZN11DescriptionC2ERKS_, symObjAddr: 0x1F44, symBinAddr: 0x1000029FC, symSize: 0xC0 }
  - { offsetInCU: 0xC3CE, offset: 0xC3CE, size: 0x8, addend: 0x0, symName: __ZN5CourtC2ERKS_, symObjAddr: 0x2004, symBinAddr: 0x100002ABC, symSize: 0xF0 }
  - { offsetInCU: 0xC403, offset: 0xC403, size: 0x8, addend: 0x0, symName: __ZN6PoliceC2ERKS_, symObjAddr: 0x20F4, symBinAddr: 0x100002BAC, symSize: 0x78 }
  - { offsetInCU: 0xC438, offset: 0xC438, size: 0x8, addend: 0x0, symName: __ZNSt3__117__compressed_pairIP8CriminalNS_9allocatorIS1_EEE6secondB8ue170006Ev, symObjAddr: 0x216C, symBinAddr: 0x100002C24, symSize: 0x24 }
  - { offsetInCU: 0xC45D, offset: 0xC45D, size: 0x8, addend: 0x0, symName: __ZNSt3__122__compressed_pair_elemINS_9allocatorI8CriminalEELi1ELb1EE5__getB8ue170006Ev, symObjAddr: 0x2190, symBinAddr: 0x100002C48, symSize: 0x14 }
  - { offsetInCU: 0xC482, offset: 0xC482, size: 0x8, addend: 0x0, symName: __ZNSt3__16vectorI8CriminalNS_9allocatorIS1_EEE21_ConstructTransactionD2B8ue170006Ev, symObjAddr: 0x21A4, symBinAddr: 0x100002C5C, symSize: 0x20 }
  - { offsetInCU: 0xC4AA, offset: 0xC4AA, size: 0x8, addend: 0x0, symName: __ZNKSt3__16vectorI8CriminalNS_9allocatorIS1_EEE11__recommendB8ue170006Em, symObjAddr: 0x21C4, symBinAddr: 0x100002C7C, symSize: 0xB4 }
  - { offsetInCU: 0xC4FE, offset: 0xC4FE, size: 0x8, addend: 0x0, symName: __ZNKSt3__16vectorI8CriminalNS_9allocatorIS1_EEE4sizeB8ue170006Ev, symObjAddr: 0x2278, symBinAddr: 0x100002D30, symSize: 0x28 }
  - { offsetInCU: 0xC523, offset: 0xC523, size: 0x8, addend: 0x0, symName: __ZNSt3__114__split_bufferI8CriminalRNS_9allocatorIS1_EEEC1EmmS4_, symObjAddr: 0x22A0, symBinAddr: 0x100002D58, symSize: 0x44 }
  - { offsetInCU: 0xC578, offset: 0xC578, size: 0x8, addend: 0x0, symName: __ZNSt3__114__split_bufferI8CriminalRNS_9allocatorIS1_EEED1Ev, symObjAddr: 0x23F4, symBinAddr: 0x100002EAC, symSize: 0x2C }
  - { offsetInCU: 0xC5A2, offset: 0xC5A2, size: 0x8, addend: 0x0, symName: __ZNKSt3__16vectorI8CriminalNS_9allocatorIS1_EEE8max_sizeEv, symObjAddr: 0x2420, symBinAddr: 0x100002ED8, symSize: 0x74 }
  - { offsetInCU: 0xC5C9, offset: 0xC5C9, size: 0x8, addend: 0x0, symName: __ZNKSt3__16vectorI8CriminalNS_9allocatorIS1_EEE20__throw_length_errorB8ue170006Ev, symObjAddr: 0x2494, symBinAddr: 0x100002F4C, symSize: 0x1C }
  - { offsetInCU: 0xC5EE, offset: 0xC5EE, size: 0x8, addend: 0x0, symName: __ZNKSt3__16vectorI8CriminalNS_9allocatorIS1_EEE8capacityB8ue170006Ev, symObjAddr: 0x24B0, symBinAddr: 0x100002F68, symSize: 0x40 }
  - { offsetInCU: 0xC61D, offset: 0xC61D, size: 0x8, addend: 0x0, symName: __ZNSt3__116allocator_traitsINS_9allocatorI8CriminalEEE8max_sizeB8ue170006IS3_vEEmRKS3_, symObjAddr: 0x2548, symBinAddr: 0x100003000, symSize: 0x24 }
  - { offsetInCU: 0xC64B, offset: 0xC64B, size: 0x8, addend: 0x0, symName: __ZNKSt3__16vectorI8CriminalNS_9allocatorIS1_EEE7__allocB8ue170006Ev, symObjAddr: 0x256C, symBinAddr: 0x100003024, symSize: 0x28 }
  - { offsetInCU: 0xC684, offset: 0xC684, size: 0x8, addend: 0x0, symName: __ZNKSt3__16__lessIvvEclB8ue170006ImmEEbRKT_RKT0_, symObjAddr: 0x25E8, symBinAddr: 0x1000030A0, symSize: 0x34 }
  - { offsetInCU: 0xC6D7, offset: 0xC6D7, size: 0x8, addend: 0x0, symName: __ZNKSt3__19allocatorI8CriminalE8max_sizeB8ue170006Ev, symObjAddr: 0x261C, symBinAddr: 0x1000030D4, symSize: 0x20 }
  - { offsetInCU: 0xC6FC, offset: 0xC6FC, size: 0x8, addend: 0x0, symName: __ZNKSt3__117__compressed_pairIP8CriminalNS_9allocatorIS1_EEE6secondB8ue170006Ev, symObjAddr: 0x263C, symBinAddr: 0x1000030F4, symSize: 0x24 }
  - { offsetInCU: 0xC721, offset: 0xC721, size: 0x8, addend: 0x0, symName: __ZNKSt3__122__compressed_pair_elemINS_9allocatorI8CriminalEELi1ELb1EE5__getB8ue170006Ev, symObjAddr: 0x2660, symBinAddr: 0x100003118, symSize: 0x14 }
  - { offsetInCU: 0xC746, offset: 0xC746, size: 0x8, addend: 0x0, symName: __ZNSt12length_errorC1B8ue170006EPKc, symObjAddr: 0x26D8, symBinAddr: 0x100003190, symSize: 0x34 }
  - { offsetInCU: 0xC77D, offset: 0xC77D, size: 0x8, addend: 0x0, symName: __ZNSt12length_errorC2B8ue170006EPKc, symObjAddr: 0x270C, symBinAddr: 0x1000031C4, symSize: 0x4C }
  - { offsetInCU: 0xC7B4, offset: 0xC7B4, size: 0x8, addend: 0x0, symName: __ZNKSt3__16vectorI8CriminalNS_9allocatorIS1_EEE9__end_capB8ue170006Ev, symObjAddr: 0x2758, symBinAddr: 0x100003210, symSize: 0x28 }
  - { offsetInCU: 0xC7D9, offset: 0xC7D9, size: 0x8, addend: 0x0, symName: __ZNKSt3__117__compressed_pairIP8CriminalNS_9allocatorIS1_EEE5firstB8ue170006Ev, symObjAddr: 0x2780, symBinAddr: 0x100003238, symSize: 0x24 }
  - { offsetInCU: 0xC7FE, offset: 0xC7FE, size: 0x8, addend: 0x0, symName: __ZNKSt3__122__compressed_pair_elemIP8CriminalLi0ELb0EE5__getB8ue170006Ev, symObjAddr: 0x27A4, symBinAddr: 0x10000325C, symSize: 0x14 }
  - { offsetInCU: 0xC823, offset: 0xC823, size: 0x8, addend: 0x0, symName: __ZNSt3__114__split_bufferI8CriminalRNS_9allocatorIS1_EEEC2EmmS4_, symObjAddr: 0x280C, symBinAddr: 0x1000032C4, symSize: 0xE0 }
  - { offsetInCU: 0xC896, offset: 0xC896, size: 0x8, addend: 0x0, symName: __ZNSt3__117__compressed_pairIP8CriminalRNS_9allocatorIS1_EEEC1B8ue170006IDnS5_EEOT_OT0_, symObjAddr: 0x28EC, symBinAddr: 0x1000033A4, symSize: 0x3C }
  - { offsetInCU: 0xC8ED, offset: 0xC8ED, size: 0x8, addend: 0x0, symName: __ZNSt3__114__split_bufferI8CriminalRNS_9allocatorIS1_EEE7__allocB8ue170006Ev, symObjAddr: 0x2968, symBinAddr: 0x100003420, symSize: 0x28 }
  - { offsetInCU: 0xC912, offset: 0xC912, size: 0x8, addend: 0x0, symName: __ZNSt3__114__split_bufferI8CriminalRNS_9allocatorIS1_EEE9__end_capB8ue170006Ev, symObjAddr: 0x2990, symBinAddr: 0x100003448, symSize: 0x28 }
  - { offsetInCU: 0xC937, offset: 0xC937, size: 0x8, addend: 0x0, symName: __ZNSt3__117__compressed_pairIP8CriminalRNS_9allocatorIS1_EEEC2B8ue170006IDnS5_EEOT_OT0_, symObjAddr: 0x29B8, symBinAddr: 0x100003470, symSize: 0x48 }
  - { offsetInCU: 0xC98E, offset: 0xC98E, size: 0x8, addend: 0x0, symName: __ZNSt3__122__compressed_pair_elemIRNS_9allocatorI8CriminalEELi1ELb0EEC2B8ue170006IS4_vEEOT_, symObjAddr: 0x2A00, symBinAddr: 0x1000034B8, symSize: 0x20 }
  - { offsetInCU: 0xC9CF, offset: 0xC9CF, size: 0x8, addend: 0x0, symName: __ZNSt3__19allocatorI8CriminalE8allocateB8ue170006Em, symObjAddr: 0x2A20, symBinAddr: 0x1000034D8, symSize: 0x8C }
  - { offsetInCU: 0xCA02, offset: 0xCA02, size: 0x8, addend: 0x0, symName: __ZNSt3__117__compressed_pairIP8CriminalRNS_9allocatorIS1_EEE6secondB8ue170006Ev, symObjAddr: 0x2B38, symBinAddr: 0x1000035F0, symSize: 0x28 }
  - { offsetInCU: 0xCA27, offset: 0xCA27, size: 0x8, addend: 0x0, symName: __ZNSt3__122__compressed_pair_elemIRNS_9allocatorI8CriminalEELi1ELb0EE5__getB8ue170006Ev, symObjAddr: 0x2B60, symBinAddr: 0x100003618, symSize: 0x18 }
  - { offsetInCU: 0xCA4C, offset: 0xCA4C, size: 0x8, addend: 0x0, symName: __ZNSt3__117__compressed_pairIP8CriminalRNS_9allocatorIS1_EEE5firstB8ue170006Ev, symObjAddr: 0x2B78, symBinAddr: 0x100003630, symSize: 0x24 }
  - { offsetInCU: 0xCA71, offset: 0xCA71, size: 0x8, addend: 0x0, symName: __ZNKSt3__16vectorI8CriminalNS_9allocatorIS1_EEE17__annotate_deleteB8ue170006Ev, symObjAddr: 0x2B9C, symBinAddr: 0x100003654, symSize: 0xD4 }
  - { offsetInCU: 0xCA96, offset: 0xCA96, size: 0x8, addend: 0x0, symName: __ZNSt3__116reverse_iteratorIP8CriminalEC1B8ue170006ES2_, symObjAddr: 0x2DA4, symBinAddr: 0x10000385C, symSize: 0x34 }
  - { offsetInCU: 0xCACD, offset: 0xCACD, size: 0x8, addend: 0x0, symName: __ZNKSt3__116reverse_iteratorIP8CriminalE4baseB8ue170006Ev, symObjAddr: 0x2DD8, symBinAddr: 0x100003890, symSize: 0x18 }
  - { offsetInCU: 0xCAF2, offset: 0xCAF2, size: 0x8, addend: 0x0, symName: __ZNKSt3__16vectorI8CriminalNS_9allocatorIS1_EEE14__annotate_newB8ue170006Em, symObjAddr: 0x2E2C, symBinAddr: 0x1000038E4, symSize: 0xC8 }
  - { offsetInCU: 0xCB26, offset: 0xCB26, size: 0x8, addend: 0x0, symName: __ZNKSt3__16vectorI8CriminalNS_9allocatorIS1_EEE31__annotate_contiguous_containerB8ue170006EPKvS6_S6_S6_, symObjAddr: 0x2EF4, symBinAddr: 0x1000039AC, symSize: 0x20 }
  - { offsetInCU: 0xCB7B, offset: 0xCB7B, size: 0x8, addend: 0x0, symName: __ZNKSt3__16vectorI8CriminalNS_9allocatorIS1_EEE4dataB8ue170006Ev, symObjAddr: 0x2F14, symBinAddr: 0x1000039CC, symSize: 0x28 }
  - { offsetInCU: 0xCBA0, offset: 0xCBA0, size: 0x8, addend: 0x0, symName: __ZNSt3__129_AllocatorDestroyRangeReverseINS_9allocatorI8CriminalEENS_16reverse_iteratorIPS2_EEEC1B8ue170006ERS3_RS6_S9_, symObjAddr: 0x2F88, symBinAddr: 0x100003A40, symSize: 0x44 }
  - { offsetInCU: 0xCBF6, offset: 0xCBF6, size: 0x8, addend: 0x0, symName: __ZNKSt3__116reverse_iteratorIP8CriminalEdeB8ue170006Ev, symObjAddr: 0x3038, symBinAddr: 0x100003AF0, symSize: 0x28 }
  - { offsetInCU: 0xCC29, offset: 0xCC29, size: 0x8, addend: 0x0, symName: __ZNSt3__116reverse_iteratorIP8CriminalEppB8ue170006Ev, symObjAddr: 0x3060, symBinAddr: 0x100003B18, symSize: 0x20 }
  - { offsetInCU: 0xCC4E, offset: 0xCC4E, size: 0x8, addend: 0x0, symName: __ZNSt3__128__exception_guard_exceptionsINS_29_AllocatorDestroyRangeReverseINS_9allocatorI8CriminalEENS_16reverse_iteratorIPS3_EEEEE10__completeB8ue170006Ev, symObjAddr: 0x3080, symBinAddr: 0x100003B38, symSize: 0x1C }
  - { offsetInCU: 0xCC73, offset: 0xCC73, size: 0x8, addend: 0x0, symName: __ZNSt3__128__exception_guard_exceptionsINS_29_AllocatorDestroyRangeReverseINS_9allocatorI8CriminalEENS_16reverse_iteratorIPS3_EEEEED1B8ue170006Ev, symObjAddr: 0x309C, symBinAddr: 0x100003B54, symSize: 0x2C }
  - { offsetInCU: 0xCC9C, offset: 0xCC9C, size: 0x8, addend: 0x0, symName: __ZNSt3__128__exception_guard_exceptionsINS_29_AllocatorDestroyRangeReverseINS_9allocatorI8CriminalEENS_16reverse_iteratorIPS3_EEEEEC1B8ue170006ES8_, symObjAddr: 0x30C8, symBinAddr: 0x100003B80, symSize: 0x34 }
  - { offsetInCU: 0xCCD4, offset: 0xCCD4, size: 0x8, addend: 0x0, symName: __ZNSt3__128__exception_guard_exceptionsINS_29_AllocatorDestroyRangeReverseINS_9allocatorI8CriminalEENS_16reverse_iteratorIPS3_EEEEEC2B8ue170006ES8_, symObjAddr: 0x30FC, symBinAddr: 0x100003BB4, symSize: 0x30 }
  - { offsetInCU: 0xCD0C, offset: 0xCD0C, size: 0x8, addend: 0x0, symName: __ZNSt3__129_AllocatorDestroyRangeReverseINS_9allocatorI8CriminalEENS_16reverse_iteratorIPS2_EEEC2B8ue170006ERS3_RS6_S9_, symObjAddr: 0x312C, symBinAddr: 0x100003BE4, symSize: 0x38 }
  - { offsetInCU: 0xCD67, offset: 0xCD67, size: 0x8, addend: 0x0, symName: __ZNSt3__119__to_address_helperINS_16reverse_iteratorIP8CriminalEEvE6__callB8ue170006ERKS4_, symObjAddr: 0x3164, symBinAddr: 0x100003C1C, symSize: 0x4C }
  - { offsetInCU: 0xCD8A, offset: 0xCD8A, size: 0x8, addend: 0x0, symName: __ZNKSt3__116reverse_iteratorIP8CriminalEptB8ue170006Ev, symObjAddr: 0x31B0, symBinAddr: 0x100003C68, symSize: 0x24 }
  - { offsetInCU: 0xCDAF, offset: 0xCDAF, size: 0x8, addend: 0x0, symName: __ZNSt3__128__exception_guard_exceptionsINS_29_AllocatorDestroyRangeReverseINS_9allocatorI8CriminalEENS_16reverse_iteratorIPS3_EEEEED2B8ue170006Ev, symObjAddr: 0x31D4, symBinAddr: 0x100003C8C, symSize: 0x48 }
  - { offsetInCU: 0xCDD8, offset: 0xCDD8, size: 0x8, addend: 0x0, symName: __ZNKSt3__129_AllocatorDestroyRangeReverseINS_9allocatorI8CriminalEENS_16reverse_iteratorIPS2_EEEclB8ue170006Ev, symObjAddr: 0x321C, symBinAddr: 0x100003CD4, symSize: 0xB4 }
  - { offsetInCU: 0xCDFE, offset: 0xCDFE, size: 0x8, addend: 0x0, symName: __ZNSt3__116reverse_iteratorINS0_IP8CriminalEEEC1B8ue170006ES3_, symObjAddr: 0x3340, symBinAddr: 0x100003DF8, symSize: 0x3C }
  - { offsetInCU: 0xCE35, offset: 0xCE35, size: 0x8, addend: 0x0, symName: __ZNSt3__116allocator_traitsINS_9allocatorI8CriminalEEE7destroyB8ue170006IS2_vEEvRS3_PT_, symObjAddr: 0x33DC, symBinAddr: 0x100003E94, symSize: 0x2C }
  - { offsetInCU: 0xCE72, offset: 0xCE72, size: 0x8, addend: 0x0, symName: __ZNSt3__116reverse_iteratorINS0_IP8CriminalEEEppB8ue170006Ev, symObjAddr: 0x342C, symBinAddr: 0x100003EE4, symSize: 0x30 }
  - { offsetInCU: 0xCE97, offset: 0xCE97, size: 0x8, addend: 0x0, symName: __ZNKSt3__116reverse_iteratorINS0_IP8CriminalEEE4baseB8ue170006Ev, symObjAddr: 0x345C, symBinAddr: 0x100003F14, symSize: 0x24 }
  - { offsetInCU: 0xCEBC, offset: 0xCEBC, size: 0x8, addend: 0x0, symName: __ZNSt3__19allocatorI8CriminalE7destroyB8ue170006EPS1_, symObjAddr: 0x3480, symBinAddr: 0x100003F38, symSize: 0x28 }
  - { offsetInCU: 0xCEF4, offset: 0xCEF4, size: 0x8, addend: 0x0, symName: __ZNSt3__119__to_address_helperINS_16reverse_iteratorINS1_IP8CriminalEEEEvE6__callB8ue170006ERKS5_, symObjAddr: 0x34A8, symBinAddr: 0x100003F60, symSize: 0x4C }
  - { offsetInCU: 0xCF17, offset: 0xCF17, size: 0x8, addend: 0x0, symName: __ZNKSt3__116reverse_iteratorINS0_IP8CriminalEEEptB8ue170006Ev, symObjAddr: 0x34F4, symBinAddr: 0x100003FAC, symSize: 0x24 }
  - { offsetInCU: 0xCF3C, offset: 0xCF3C, size: 0x8, addend: 0x0, symName: __ZNKSt3__116reverse_iteratorINS0_IP8CriminalEEEdeB8ue170006Ev, symObjAddr: 0x3518, symBinAddr: 0x100003FD0, symSize: 0x34 }
  - { offsetInCU: 0xCF6F, offset: 0xCF6F, size: 0x8, addend: 0x0, symName: __ZNSt3__116reverse_iteratorIP8CriminalEmmB8ue170006Ev, symObjAddr: 0x354C, symBinAddr: 0x100004004, symSize: 0x20 }
  - { offsetInCU: 0xCF94, offset: 0xCF94, size: 0x8, addend: 0x0, symName: __ZNSt3__116reverse_iteratorINS0_IP8CriminalEEEC2B8ue170006ES3_, symObjAddr: 0x356C, symBinAddr: 0x100004024, symSize: 0x2C }
  - { offsetInCU: 0xCFCB, offset: 0xCFCB, size: 0x8, addend: 0x0, symName: __ZNSt3__116reverse_iteratorIP8CriminalEC2B8ue170006ES2_, symObjAddr: 0x3598, symBinAddr: 0x100004050, symSize: 0x28 }
  - { offsetInCU: 0xD002, offset: 0xD002, size: 0x8, addend: 0x0, symName: __ZNSt3__114__split_bufferI8CriminalRNS_9allocatorIS1_EEED2Ev, symObjAddr: 0x35C0, symBinAddr: 0x100004078, symSize: 0x80 }
  - { offsetInCU: 0xD02D, offset: 0xD02D, size: 0x8, addend: 0x0, symName: __ZNSt3__114__split_bufferI8CriminalRNS_9allocatorIS1_EEE5clearB8ue170006Ev, symObjAddr: 0x3640, symBinAddr: 0x1000040F8, symSize: 0x28 }
  - { offsetInCU: 0xD052, offset: 0xD052, size: 0x8, addend: 0x0, symName: __ZNSt3__116allocator_traitsINS_9allocatorI8CriminalEEE10deallocateB8ue170006ERS3_PS2_m, symObjAddr: 0x3668, symBinAddr: 0x100004120, symSize: 0x34 }
  - { offsetInCU: 0xD094, offset: 0xD094, size: 0x8, addend: 0x0, symName: __ZNKSt3__114__split_bufferI8CriminalRNS_9allocatorIS1_EEE8capacityB8ue170006Ev, symObjAddr: 0x369C, symBinAddr: 0x100004154, symSize: 0x40 }
  - { offsetInCU: 0xD0B9, offset: 0xD0B9, size: 0x8, addend: 0x0, symName: __ZNSt3__114__split_bufferI8CriminalRNS_9allocatorIS1_EEE17__destruct_at_endB8ue170006EPS1_, symObjAddr: 0x36DC, symBinAddr: 0x100004194, symSize: 0x2C }
  - { offsetInCU: 0xD0EB, offset: 0xD0EB, size: 0x8, addend: 0x0, symName: __ZNSt3__114__split_bufferI8CriminalRNS_9allocatorIS1_EEE17__destruct_at_endB8ue170006EPS1_NS_17integral_constantIbLb0EEE, symObjAddr: 0x3708, symBinAddr: 0x1000041C0, symSize: 0x94 }
  - { offsetInCU: 0xD12B, offset: 0xD12B, size: 0x8, addend: 0x0, symName: __ZNSt3__19allocatorI8CriminalE10deallocateB8ue170006EPS1_m, symObjAddr: 0x379C, symBinAddr: 0x100004254, symSize: 0x74 }
  - { offsetInCU: 0xD16C, offset: 0xD16C, size: 0x8, addend: 0x0, symName: __ZNKSt3__114__split_bufferI8CriminalRNS_9allocatorIS1_EEE9__end_capB8ue170006Ev, symObjAddr: 0x388C, symBinAddr: 0x100004344, symSize: 0x28 }
  - { offsetInCU: 0xD191, offset: 0xD191, size: 0x8, addend: 0x0, symName: __ZNKSt3__117__compressed_pairIP8CriminalRNS_9allocatorIS1_EEE5firstB8ue170006Ev, symObjAddr: 0x38B4, symBinAddr: 0x10000436C, symSize: 0x24 }
  - { offsetInCU: 0xD1B6, offset: 0xD1B6, size: 0x8, addend: 0x0, symName: __ZN8CriminalD2Ev, symObjAddr: 0x38D8, symBinAddr: 0x100004390, symSize: 0x168 }
  - { offsetInCU: 0xD1E2, offset: 0xD1E2, size: 0x8, addend: 0x0, symName: __ZN6PoliceD1Ev, symObjAddr: 0x3A40, symBinAddr: 0x1000044F8, symSize: 0x2C }
  - { offsetInCU: 0xD20E, offset: 0xD20E, size: 0x8, addend: 0x0, symName: __ZN6PoliceD2Ev, symObjAddr: 0x3A6C, symBinAddr: 0x100004524, symSize: 0x68 }
  - { offsetInCU: 0xD23A, offset: 0xD23A, size: 0x8, addend: 0x0, symName: __ZNSt3__16vectorI8CriminalNS_9allocatorIS1_EEEixB8ue170006Em, symObjAddr: 0x3C1C, symBinAddr: 0x1000046D4, symSize: 0x2C }
  - { offsetInCU: 0xD270, offset: 0xD270, size: 0x8, addend: 0x0, symName: __ZNK8Criminal12getConvictNoEv, symObjAddr: 0x3C48, symBinAddr: 0x100004700, symSize: 0x3C }
  - { offsetInCU: 0xD295, offset: 0xD295, size: 0x8, addend: 0x0, symName: __ZNKSt3__112basic_stringIcNS_11char_traitsIcEENS_9allocatorIcEEE4sizeB8ue170006Ev, symObjAddr: 0x3C84, symBinAddr: 0x10000473C, symSize: 0x54 }
  - { offsetInCU: 0xD2BA, offset: 0xD2BA, size: 0x8, addend: 0x0, symName: __ZNKSt3__112basic_stringIcNS_11char_traitsIcEENS_9allocatorIcEEE4dataB8ue170006Ev, symObjAddr: 0x3CD8, symBinAddr: 0x100004790, symSize: 0x28 }
  - { offsetInCU: 0xD2DF, offset: 0xD2DF, size: 0x8, addend: 0x0, symName: __ZNKSt3__112basic_stringIcNS_11char_traitsIcEENS_9allocatorIcEEE9__is_longB8ue170006Ev, symObjAddr: 0x3D00, symBinAddr: 0x1000047B8, symSize: 0x74 }
  - { offsetInCU: 0xD304, offset: 0xD304, size: 0x8, addend: 0x0, symName: __ZNSt3__111char_traitsIcE7compareB8ue170006EPKcS3_m, symObjAddr: 0x3D74, symBinAddr: 0x10000482C, symSize: 0x64 }
  - { offsetInCU: 0xD343, offset: 0xD343, size: 0x8, addend: 0x0, symName: __ZNKSt3__112basic_stringIcNS_11char_traitsIcEENS_9allocatorIcEEE15__get_long_sizeB8ue170006Ev, symObjAddr: 0x3DD8, symBinAddr: 0x100004890, symSize: 0x28 }
  - { offsetInCU: 0xD368, offset: 0xD368, size: 0x8, addend: 0x0, symName: __ZNKSt3__112basic_stringIcNS_11char_traitsIcEENS_9allocatorIcEEE16__get_short_sizeB8ue170006Ev, symObjAddr: 0x3E00, symBinAddr: 0x1000048B8, symSize: 0x34 }
  - { offsetInCU: 0xD38D, offset: 0xD38D, size: 0x8, addend: 0x0, symName: __ZNKSt3__117__compressed_pairINS_12basic_stringIcNS_11char_traitsIcEENS_9allocatorIcEEE5__repES5_E5firstB8ue170006Ev, symObjAddr: 0x3E34, symBinAddr: 0x1000048EC, symSize: 0x24 }
  - { offsetInCU: 0xD3B2, offset: 0xD3B2, size: 0x8, addend: 0x0, symName: __ZNKSt3__122__compressed_pair_elemINS_12basic_stringIcNS_11char_traitsIcEENS_9allocatorIcEEE5__repELi0ELb0EE5__getB8ue170006Ev, symObjAddr: 0x3E58, symBinAddr: 0x100004910, symSize: 0x14 }
  - { offsetInCU: 0xD3D7, offset: 0xD3D7, size: 0x8, addend: 0x0, symName: __ZNKSt3__112basic_stringIcNS_11char_traitsIcEENS_9allocatorIcEEE13__get_pointerB8ue170006Ev, symObjAddr: 0x3E80, symBinAddr: 0x100004938, symSize: 0x54 }
  - { offsetInCU: 0xD3FC, offset: 0xD3FC, size: 0x8, addend: 0x0, symName: __ZNKSt3__112basic_stringIcNS_11char_traitsIcEENS_9allocatorIcEEE18__get_long_pointerB8ue170006Ev, symObjAddr: 0x3ED4, symBinAddr: 0x10000498C, symSize: 0x28 }
  - { offsetInCU: 0xD421, offset: 0xD421, size: 0x8, addend: 0x0, symName: __ZNKSt3__112basic_stringIcNS_11char_traitsIcEENS_9allocatorIcEEE19__get_short_pointerB8ue170006Ev, symObjAddr: 0x3EFC, symBinAddr: 0x1000049B4, symSize: 0x28 }
  - { offsetInCU: 0xD446, offset: 0xD446, size: 0x8, addend: 0x0, symName: __ZNSt3__114pointer_traitsIPKcE10pointer_toB8ue170006ERS1_, symObjAddr: 0x3F24, symBinAddr: 0x1000049DC, symSize: 0x14 }
  - { offsetInCU: 0xD468, offset: 0xD468, size: 0x8, addend: 0x0, symName: __ZNSt3__16vectorI8CriminalNS_9allocatorIS1_EEE5eraseB8ue170006ENS_11__wrap_iterIPKS1_EE, symObjAddr: 0x3F38, symBinAddr: 0x1000049F0, symSize: 0x9C }
  - { offsetInCU: 0xD4BB, offset: 0xD4BB, size: 0x8, addend: 0x0, symName: __ZNSt3__16vectorI8CriminalNS_9allocatorIS1_EEE5beginB8ue170006Ev, symObjAddr: 0x3FD4, symBinAddr: 0x100004A8C, symSize: 0x30 }
  - { offsetInCU: 0xD4E2, offset: 0xD4E2, size: 0x8, addend: 0x0, symName: __ZNKSt3__111__wrap_iterIP8CriminalEplB8ue170006El, symObjAddr: 0x4004, symBinAddr: 0x100004ABC, symSize: 0x3C }
  - { offsetInCU: 0xD52D, offset: 0xD52D, size: 0x8, addend: 0x0, symName: __ZNSt3__111__wrap_iterIPK8CriminalEC1B8ue170006IPS1_EERKNS0_IT_EEPNS_9enable_ifIXsr14is_convertibleIS7_S3_EE5valueEvE4typeE, symObjAddr: 0x4040, symBinAddr: 0x100004AF8, symSize: 0x3C }
  - { offsetInCU: 0xD578, offset: 0xD578, size: 0x8, addend: 0x0, symName: __ZNKSt3__16vectorI8CriminalNS_9allocatorIS1_EEE6cbeginB8ue170006Ev, symObjAddr: 0x40C4, symBinAddr: 0x100004B7C, symSize: 0x2C }
  - { offsetInCU: 0xD59D, offset: 0xD59D, size: 0x8, addend: 0x0, symName: __ZNSt3__16vectorI8CriminalNS_9allocatorIS1_EEE17__destruct_at_endB8ue170006EPS1_, symObjAddr: 0x40F0, symBinAddr: 0x100004BA8, symSize: 0x4C }
  - { offsetInCU: 0xD5E0, offset: 0xD5E0, size: 0x8, addend: 0x0, symName: __ZNSt3__16vectorI8CriminalNS_9allocatorIS1_EEE11__make_iterB8ue170006EPS1_, symObjAddr: 0x417C, symBinAddr: 0x100004C34, symSize: 0x30 }
  - { offsetInCU: 0xD614, offset: 0xD614, size: 0x8, addend: 0x0, symName: __ZNKSt3__111__wrap_iterIPK8CriminalE4baseB8ue170006Ev, symObjAddr: 0x41AC, symBinAddr: 0x100004C64, symSize: 0x18 }
  - { offsetInCU: 0xD638, offset: 0xD638, size: 0x8, addend: 0x0, symName: __ZNKSt3__16vectorI8CriminalNS_9allocatorIS1_EEE5beginB8ue170006Ev, symObjAddr: 0x41C4, symBinAddr: 0x100004C7C, symSize: 0x30 }
  - { offsetInCU: 0xD65F, offset: 0xD65F, size: 0x8, addend: 0x0, symName: __ZNKSt3__16vectorI8CriminalNS_9allocatorIS1_EEE11__make_iterB8ue170006EPKS1_, symObjAddr: 0x41F4, symBinAddr: 0x100004CAC, symSize: 0x30 }
  - { offsetInCU: 0xD693, offset: 0xD693, size: 0x8, addend: 0x0, symName: __ZNSt3__111__wrap_iterIPK8CriminalEC1B8ue170006ES3_, symObjAddr: 0x4224, symBinAddr: 0x100004CDC, symSize: 0x34 }
  - { offsetInCU: 0xD6CA, offset: 0xD6CA, size: 0x8, addend: 0x0, symName: __ZNSt3__111__wrap_iterIPK8CriminalEC2B8ue170006ES3_, symObjAddr: 0x4258, symBinAddr: 0x100004D10, symSize: 0x20 }
  - { offsetInCU: 0xD701, offset: 0xD701, size: 0x8, addend: 0x0, symName: __ZNSt3__16vectorI8CriminalNS_9allocatorIS1_EEE22__base_destruct_at_endB8ue170006EPS1_, symObjAddr: 0x4278, symBinAddr: 0x100004D30, symSize: 0xA0 }
  - { offsetInCU: 0xD744, offset: 0xD744, size: 0x8, addend: 0x0, symName: __ZNKSt3__16vectorI8CriminalNS_9allocatorIS1_EEE17__annotate_shrinkB8ue170006Em, symObjAddr: 0x4318, symBinAddr: 0x100004DD0, symSize: 0xD0 }
  - { offsetInCU: 0xD79B, offset: 0xD79B, size: 0x8, addend: 0x0, symName: __ZNKSt3__111__move_loopINS_17_ClassicAlgPolicyEEclB8ue170006IP8CriminalS5_S5_EENS_4pairIT_T1_EES7_T0_S8_, symObjAddr: 0x4584, symBinAddr: 0x10000503C, symSize: 0x90 }
  - { offsetInCU: 0xD80A, offset: 0xD80A, size: 0x8, addend: 0x0, symName: __ZNSt3__18_IterOpsINS_17_ClassicAlgPolicyEE11__iter_moveB8ue170006IRP8CriminalEENS_9enable_ifIXsr12is_referenceIDTdeclsr3stdE7declvalIRT_EEEEE5valueEDTclsr3stdE4movedeclsr3stdE7declvalIS9_EEEEE4typeEOS8_, symObjAddr: 0x46EC, symBinAddr: 0x1000051A4, symSize: 0x28 }
  - { offsetInCU: 0xD836, offset: 0xD836, size: 0x8, addend: 0x0, symName: __ZN8CriminalaSERKS_, symObjAddr: 0x4714, symBinAddr: 0x1000051CC, symSize: 0xCC }
  - { offsetInCU: 0xD867, offset: 0xD867, size: 0x8, addend: 0x0, symName: __ZNSt3__18_IterOpsINS_17_ClassicAlgPolicyEE25__validate_iter_referenceB8ue170006IRP8CriminalEEvv, symObjAddr: 0x47E0, symBinAddr: 0x100005298, symSize: 0x4 }
  - { offsetInCU: 0xD88A, offset: 0xD88A, size: 0x8, addend: 0x0, symName: __ZN11DescriptionaSERKS_, symObjAddr: 0x47E4, symBinAddr: 0x10000529C, symSize: 0x68 }
  - { offsetInCU: 0xD8C0, offset: 0xD8C0, size: 0x8, addend: 0x0, symName: __ZN5CourtaSERKS_, symObjAddr: 0x484C, symBinAddr: 0x100005304, symSize: 0x70 }
  - { offsetInCU: 0xD8F6, offset: 0xD8F6, size: 0x8, addend: 0x0, symName: __ZN6PoliceaSERKS_, symObjAddr: 0x48BC, symBinAddr: 0x100005374, symSize: 0x48 }
  - { offsetInCU: 0xD927, offset: 0xD927, size: 0x8, addend: 0x0, symName: __ZNSt3__118__unwrap_iter_implIP8CriminalLb1EE8__unwrapB8ue170006ES2_, symObjAddr: 0x4904, symBinAddr: 0x1000053BC, symSize: 0x24 }
  - { offsetInCU: 0xD94A, offset: 0xD94A, size: 0x8, addend: 0x0, symName: __ZNSt3__14pairIP8CriminalS2_EC1B8ue170006ERKS2_S5_, symObjAddr: 0x4928, symBinAddr: 0x1000053E0, symSize: 0x3C }
  - { offsetInCU: 0xD98F, offset: 0xD98F, size: 0x8, addend: 0x0, symName: __ZNSt3__14pairIP8CriminalS2_EC2B8ue170006ERKS2_S5_, symObjAddr: 0x4964, symBinAddr: 0x10000541C, symSize: 0x34 }
  - { offsetInCU: 0xD9D4, offset: 0xD9D4, size: 0x8, addend: 0x0, symName: __ZNSt3__118__unwrap_iter_implIP8CriminalLb1EE8__rewrapB8ue170006ES2_S2_, symObjAddr: 0x4998, symBinAddr: 0x100005450, symSize: 0x58 }
  - { offsetInCU: 0xDA05, offset: 0xDA05, size: 0x8, addend: 0x0, symName: __ZNSt3__111__wrap_iterIP8CriminalEC1B8ue170006ES2_, symObjAddr: 0x49F0, symBinAddr: 0x1000054A8, symSize: 0x34 }
  - { offsetInCU: 0xDA3C, offset: 0xDA3C, size: 0x8, addend: 0x0, symName: __ZNSt3__111__wrap_iterIP8CriminalEC2B8ue170006ES2_, symObjAddr: 0x4A24, symBinAddr: 0x1000054DC, symSize: 0x20 }
  - { offsetInCU: 0xDA73, offset: 0xDA73, size: 0x8, addend: 0x0, symName: __ZNSt3__111__wrap_iterIP8CriminalEpLB8ue170006El, symObjAddr: 0x4A44, symBinAddr: 0x1000054FC, symSize: 0x30 }
  - { offsetInCU: 0xDAA6, offset: 0xDAA6, size: 0x8, addend: 0x0, symName: __ZNSt3__111__wrap_iterIPK8CriminalEC2B8ue170006IPS1_EERKNS0_IT_EEPNS_9enable_ifIXsr14is_convertibleIS7_S3_EE5valueEvE4typeE, symObjAddr: 0x4A74, symBinAddr: 0x10000552C, symSize: 0x40 }
  - { offsetInCU: 0xDAF1, offset: 0xDAF1, size: 0x8, addend: 0x0, symName: __ZNKSt3__111__wrap_iterIP8CriminalE4baseB8ue170006Ev, symObjAddr: 0x4AB4, symBinAddr: 0x10000556C, symSize: 0x18 }
  - { offsetInCU: 0xDB16, offset: 0xDB16, size: 0x8, addend: 0x0, symName: __ZN8Criminal7displayEv, symObjAddr: 0x4ACC, symBinAddr: 0x100005584, symSize: 0x2D4 }
  - { offsetInCU: 0xDB3B, offset: 0xDB3B, size: 0x8, addend: 0x0, symName: __ZNSt3__113basic_ostreamIcNS_11char_traitsIcEEElsB8ue170006EPFRS3_S4_E, symObjAddr: 0x4DEC, symBinAddr: 0x1000058A4, symSize: 0x2C }
  - { offsetInCU: 0xDB8C, offset: 0xDB8C, size: 0x8, addend: 0x0, symName: __ZNKSt3__113basic_ostreamIcNS_11char_traitsIcEEE6sentrycvbB8ue170006Ev, symObjAddr: 0x5064, symBinAddr: 0x100005B1C, symSize: 0x1C }
  - { offsetInCU: 0xDBB1, offset: 0xDBB1, size: 0x8, addend: 0x0, symName: __ZNSt3__119ostreambuf_iteratorIcNS_11char_traitsIcEEEC1B8ue170006ERNS_13basic_ostreamIcS2_EE, symObjAddr: 0x52C8, symBinAddr: 0x100005D80, symSize: 0x34 }
  - { offsetInCU: 0xDBE8, offset: 0xDBE8, size: 0x8, addend: 0x0, symName: __ZNKSt3__18ios_base5flagsB8ue170006Ev, symObjAddr: 0x52FC, symBinAddr: 0x100005DB4, symSize: 0x18 }
  - { offsetInCU: 0xDC0E, offset: 0xDC0E, size: 0x8, addend: 0x0, symName: __ZNKSt3__19basic_iosIcNS_11char_traitsIcEEE4fillB8ue170006Ev, symObjAddr: 0x5314, symBinAddr: 0x100005DCC, symSize: 0x64 }
  - { offsetInCU: 0xDC35, offset: 0xDC35, size: 0x8, addend: 0x0, symName: __ZNKSt3__119ostreambuf_iteratorIcNS_11char_traitsIcEEE6failedB8ue170006Ev, symObjAddr: 0x5378, symBinAddr: 0x100005E30, symSize: 0x24 }
  - { offsetInCU: 0xDC5A, offset: 0xDC5A, size: 0x8, addend: 0x0, symName: __ZNSt3__19basic_iosIcNS_11char_traitsIcEEE8setstateB8ue170006Ej, symObjAddr: 0x539C, symBinAddr: 0x100005E54, symSize: 0x2C }
  - { offsetInCU: 0xDC8E, offset: 0xDC8E, size: 0x8, addend: 0x0, symName: __ZNKSt3__18ios_base5widthB8ue170006Ev, symObjAddr: 0x53C8, symBinAddr: 0x100005E80, symSize: 0x18 }
  - { offsetInCU: 0xDCB5, offset: 0xDCB5, size: 0x8, addend: 0x0, symName: __ZNSt3__115basic_streambufIcNS_11char_traitsIcEEE5sputnB8ue170006EPKcl, symObjAddr: 0x53E0, symBinAddr: 0x100005E98, symSize: 0x3C }
  - { offsetInCU: 0xDCF6, offset: 0xDCF6, size: 0x8, addend: 0x0, symName: __ZNSt3__112basic_stringIcNS_11char_traitsIcEENS_9allocatorIcEEEC1B8ue170006Emc, symObjAddr: 0x541C, symBinAddr: 0x100005ED4, symSize: 0x3C }
  - { offsetInCU: 0xDD3D, offset: 0xDD3D, size: 0x8, addend: 0x0, symName: __ZNSt3__18ios_base5widthB8ue170006El, symObjAddr: 0x5458, symBinAddr: 0x100005F10, symSize: 0x2C }
  - { offsetInCU: 0xDD82, offset: 0xDD82, size: 0x8, addend: 0x0, symName: __ZNSt3__112basic_stringIcNS_11char_traitsIcEENS_9allocatorIcEEEC2B8ue170006Emc, symObjAddr: 0x5484, symBinAddr: 0x100005F3C, symSize: 0x4C }
  - { offsetInCU: 0xDDC9, offset: 0xDDC9, size: 0x8, addend: 0x0, symName: __ZNSt3__117__compressed_pairINS_12basic_stringIcNS_11char_traitsIcEENS_9allocatorIcEEE5__repES5_EC1B8ue170006INS_18__default_init_tagESA_EEOT_OT0_, symObjAddr: 0x54D0, symBinAddr: 0x100005F88, symSize: 0x3C }
  - { offsetInCU: 0xDE20, offset: 0xDE20, size: 0x8, addend: 0x0, symName: __ZNSt3__117__compressed_pairINS_12basic_stringIcNS_11char_traitsIcEENS_9allocatorIcEEE5__repES5_EC2B8ue170006INS_18__default_init_tagESA_EEOT_OT0_, symObjAddr: 0x550C, symBinAddr: 0x100005FC4, symSize: 0x3C }
  - { offsetInCU: 0xDE77, offset: 0xDE77, size: 0x8, addend: 0x0, symName: __ZNSt3__122__compressed_pair_elemINS_12basic_stringIcNS_11char_traitsIcEENS_9allocatorIcEEE5__repELi0ELb0EEC2B8ue170006ENS_18__default_init_tagE, symObjAddr: 0x5548, symBinAddr: 0x100006000, symSize: 0x14 }
  - { offsetInCU: 0xDEAB, offset: 0xDEAB, size: 0x8, addend: 0x0, symName: __ZNSt3__122__compressed_pair_elemINS_9allocatorIcEELi1ELb1EEC2B8ue170006ENS_18__default_init_tagE, symObjAddr: 0x555C, symBinAddr: 0x100006014, symSize: 0x2C }
  - { offsetInCU: 0xDEDF, offset: 0xDEDF, size: 0x8, addend: 0x0, symName: __ZNSt3__19allocatorIcEC2B8ue170006Ev, symObjAddr: 0x5588, symBinAddr: 0x100006040, symSize: 0x2C }
  - { offsetInCU: 0xDF08, offset: 0xDF08, size: 0x8, addend: 0x0, symName: __ZNSt3__116__non_trivial_ifILb1ENS_9allocatorIcEEEC2B8ue170006Ev, symObjAddr: 0x55B4, symBinAddr: 0x10000606C, symSize: 0x14 }
  - { offsetInCU: 0xDF31, offset: 0xDF31, size: 0x8, addend: 0x0, symName: __ZNSt3__119ostreambuf_iteratorIcNS_11char_traitsIcEEEC2B8ue170006ERNS_13basic_ostreamIcS2_EE, symObjAddr: 0x55C8, symBinAddr: 0x100006080, symSize: 0x68 }
  - { offsetInCU: 0xDF67, offset: 0xDF67, size: 0x8, addend: 0x0, symName: __ZNKSt3__19basic_iosIcNS_11char_traitsIcEEE5rdbufB8ue170006Ev, symObjAddr: 0x5630, symBinAddr: 0x1000060E8, symSize: 0x24 }
  - { offsetInCU: 0xDF8E, offset: 0xDF8E, size: 0x8, addend: 0x0, symName: __ZNKSt3__18ios_base5rdbufB8ue170006Ev, symObjAddr: 0x5654, symBinAddr: 0x10000610C, symSize: 0x18 }
  - { offsetInCU: 0xDFB3, offset: 0xDFB3, size: 0x8, addend: 0x0, symName: __ZNSt3__111char_traitsIcE11eq_int_typeB8ue170006Eii, symObjAddr: 0x566C, symBinAddr: 0x100006124, symSize: 0x28 }
  - { offsetInCU: 0xDFE5, offset: 0xDFE5, size: 0x8, addend: 0x0, symName: __ZNKSt3__19basic_iosIcNS_11char_traitsIcEEE5widenB8ue170006Ec, symObjAddr: 0x5694, symBinAddr: 0x10000614C, symSize: 0x8C }
  - { offsetInCU: 0xE052, offset: 0xE052, size: 0x8, addend: 0x0, symName: __ZNKSt3__15ctypeIcE5widenB8ue170006Ec, symObjAddr: 0x574C, symBinAddr: 0x100006204, symSize: 0x38 }
  - { offsetInCU: 0xE085, offset: 0xE085, size: 0x8, addend: 0x0, symName: __ZNSt3__18ios_base8setstateB8ue170006Ej, symObjAddr: 0x5784, symBinAddr: 0x10000623C, symSize: 0x34 }
  - { offsetInCU: 0xE0BB, offset: 0xE0BB, size: 0x8, addend: 0x0, symName: __ZN15Criminal_recordD2Ev, symObjAddr: 0x57B8, symBinAddr: 0x100006270, symSize: 0x2C }
  - { offsetInCU: 0xE0E7, offset: 0xE0E7, size: 0x8, addend: 0x0, symName: __ZNSt3__16vectorI8CriminalNS_9allocatorIS1_EEED1B8ue170006Ev, symObjAddr: 0x57E4, symBinAddr: 0x10000629C, symSize: 0x2C }
  - { offsetInCU: 0xE110, offset: 0xE110, size: 0x8, addend: 0x0, symName: __ZNSt3__16vectorI8CriminalNS_9allocatorIS1_EEED2B8ue170006Ev, symObjAddr: 0x5810, symBinAddr: 0x1000062C8, symSize: 0x3C }
  - { offsetInCU: 0xE139, offset: 0xE139, size: 0x8, addend: 0x0, symName: __ZNSt3__16vectorI8CriminalNS_9allocatorIS1_EEE16__destroy_vectorC1B8ue170006ERS4_, symObjAddr: 0x584C, symBinAddr: 0x100006304, symSize: 0x34 }
  - { offsetInCU: 0xE171, offset: 0xE171, size: 0x8, addend: 0x0, symName: __ZNSt3__16vectorI8CriminalNS_9allocatorIS1_EEE16__destroy_vectorclB8ue170006Ev, symObjAddr: 0x5880, symBinAddr: 0x100006338, symSize: 0x90 }
  - { offsetInCU: 0xE196, offset: 0xE196, size: 0x8, addend: 0x0, symName: __ZNSt3__16vectorI8CriminalNS_9allocatorIS1_EEE16__destroy_vectorC2B8ue170006ERS4_, symObjAddr: 0x5910, symBinAddr: 0x1000063C8, symSize: 0x20 }
  - { offsetInCU: 0xE1CE, offset: 0xE1CE, size: 0x8, addend: 0x0, symName: __ZNSt3__16vectorI8CriminalNS_9allocatorIS1_EEE7__clearB8ue170006Ev, symObjAddr: 0x5930, symBinAddr: 0x1000063E8, symSize: 0x28 }
  - { offsetInCU: 0xE1F3, offset: 0xE1F3, size: 0x8, addend: 0x0, symName: __ZNSt3__112basic_stringIcNS_11char_traitsIcEENS_9allocatorIcEEEC2B8ue170006Ev, symObjAddr: 0x5958, symBinAddr: 0x100006410, symSize: 0x3C }
  - { offsetInCU: 0xE21C, offset: 0xE21C, size: 0x8, addend: 0x0, symName: __ZNSt3__112basic_stringIcNS_11char_traitsIcEENS_9allocatorIcEEE14__default_initB8ue170006Ev, symObjAddr: 0x5994, symBinAddr: 0x10000644C, symSize: 0xB0 }
  - { offsetInCU: 0xE26E, offset: 0xE26E, size: 0x8, addend: 0x0, symName: __ZNSt3__117__compressed_pairINS_12basic_stringIcNS_11char_traitsIcEENS_9allocatorIcEEE5__repES5_E5firstB8ue170006Ev, symObjAddr: 0x5A44, symBinAddr: 0x1000064FC, symSize: 0x24 }
  - { offsetInCU: 0xE293, offset: 0xE293, size: 0x8, addend: 0x0, symName: __ZNSt3__112basic_stringIcNS_11char_traitsIcEENS_9allocatorIcEEE11__recommendB8ue170006Em, symObjAddr: 0x5A68, symBinAddr: 0x100006520, symSize: 0x9C }
  - { offsetInCU: 0xE2C6, offset: 0xE2C6, size: 0x8, addend: 0x0, symName: __ZNSt3__116allocator_traitsINS_9allocatorIcEEE8allocateB8ue170006ERS2_m, symObjAddr: 0x5B04, symBinAddr: 0x1000065BC, symSize: 0x2C }
  - { offsetInCU: 0xE2F9, offset: 0xE2F9, size: 0x8, addend: 0x0, symName: __ZNSt3__112basic_stringIcNS_11char_traitsIcEENS_9allocatorIcEEE7__allocB8ue170006Ev, symObjAddr: 0x5B30, symBinAddr: 0x1000065E8, symSize: 0x24 }
  - { offsetInCU: 0xE31E, offset: 0xE31E, size: 0x8, addend: 0x0, symName: __ZNSt3__112basic_stringIcNS_11char_traitsIcEENS_9allocatorIcEEE16__begin_lifetimeB8ue170006EPcm, symObjAddr: 0x5B54, symBinAddr: 0x10000660C, symSize: 0x14 }
  - { offsetInCU: 0xE351, offset: 0xE351, size: 0x8, addend: 0x0, symName: __ZNSt3__112basic_stringIcNS_11char_traitsIcEENS_9allocatorIcEEE18__set_long_pointerB8ue170006EPc, symObjAddr: 0x5B68, symBinAddr: 0x100006620, symSize: 0x38 }
  - { offsetInCU: 0xE385, offset: 0xE385, size: 0x8, addend: 0x0, symName: __ZNSt3__112basic_stringIcNS_11char_traitsIcEENS_9allocatorIcEEE14__set_long_capB8ue170006Em, symObjAddr: 0x5BA0, symBinAddr: 0x100006658, symSize: 0x70 }
  - { offsetInCU: 0xE3B9, offset: 0xE3B9, size: 0x8, addend: 0x0, symName: __ZNSt3__112basic_stringIcNS_11char_traitsIcEENS_9allocatorIcEEE15__set_long_sizeB8ue170006Em, symObjAddr: 0x5C10, symBinAddr: 0x1000066C8, symSize: 0x38 }
  - { offsetInCU: 0xE3ED, offset: 0xE3ED, size: 0x8, addend: 0x0, symName: __ZNSt3__122__compressed_pair_elemINS_12basic_stringIcNS_11char_traitsIcEENS_9allocatorIcEEE5__repELi0ELb0EE5__getB8ue170006Ev, symObjAddr: 0x5C48, symBinAddr: 0x100006700, symSize: 0x14 }
  - { offsetInCU: 0xE412, offset: 0xE412, size: 0x8, addend: 0x0, symName: __ZNSt3__112basic_stringIcNS_11char_traitsIcEENS_9allocatorIcEEE10__align_itB8ue170006ILm16EEEmm, symObjAddr: 0x5C5C, symBinAddr: 0x100006714, symSize: 0x1C }
  - { offsetInCU: 0xE440, offset: 0xE440, size: 0x8, addend: 0x0, symName: __ZNSt3__19allocatorIcE8allocateB8ue170006Em, symObjAddr: 0x5C78, symBinAddr: 0x100006730, symSize: 0x84 }
  - { offsetInCU: 0xE47D, offset: 0xE47D, size: 0x8, addend: 0x0, symName: __ZNSt3__116allocator_traitsINS_9allocatorIcEEE8max_sizeB8ue170006IS2_vEEmRKS2_, symObjAddr: 0x5CFC, symBinAddr: 0x1000067B4, symSize: 0x24 }
  - { offsetInCU: 0xE4AB, offset: 0xE4AB, size: 0x8, addend: 0x0, symName: __ZNKSt3__19allocatorIcE8max_sizeB8ue170006Ev, symObjAddr: 0x5D20, symBinAddr: 0x1000067D8, symSize: 0x14 }
  - { offsetInCU: 0xE4D0, offset: 0xE4D0, size: 0x8, addend: 0x0, symName: __ZNSt3__117__compressed_pairINS_12basic_stringIcNS_11char_traitsIcEENS_9allocatorIcEEE5__repES5_E6secondB8ue170006Ev, symObjAddr: 0x5D34, symBinAddr: 0x1000067EC, symSize: 0x24 }
  - { offsetInCU: 0xE4F5, offset: 0xE4F5, size: 0x8, addend: 0x0, symName: __ZNSt3__122__compressed_pair_elemINS_9allocatorIcEELi1ELb1EE5__getB8ue170006Ev, symObjAddr: 0x5D58, symBinAddr: 0x100006810, symSize: 0x14 }
  - { offsetInCU: 0xE51A, offset: 0xE51A, size: 0x8, addend: 0x0, symName: __ZNSt3__111char_traitsIcE6lengthB8ue170006EPKc, symObjAddr: 0x5D6C, symBinAddr: 0x100006824, symSize: 0x48 }
  - { offsetInCU: 0xE5E4, offset: 0xE5E4, size: 0x8, addend: 0x0, symName: __ZNKSt3__113basic_istreamIcNS_11char_traitsIcEEE6sentrycvbB8ue170006Ev, symObjAddr: 0x6010, symBinAddr: 0x100006AC8, symSize: 0x1C }
  - { offsetInCU: 0xE608, offset: 0xE608, size: 0x8, addend: 0x0, symName: __ZNSt3__112basic_stringIcNS_11char_traitsIcEENS_9allocatorIcEEE5clearB8ue170006Ev, symObjAddr: 0x602C, symBinAddr: 0x100006AE4, symSize: 0x78 }
  - { offsetInCU: 0xE62F, offset: 0xE62F, size: 0x8, addend: 0x0, symName: __ZNSt3__115basic_streambufIcNS_11char_traitsIcEEE6sbumpcB8ue170006Ev, symObjAddr: 0x60A4, symBinAddr: 0x100006B5C, symSize: 0x78 }
  - { offsetInCU: 0xE654, offset: 0xE654, size: 0x8, addend: 0x0, symName: __ZNSt3__111char_traitsIcE12to_char_typeB8ue170006Ei, symObjAddr: 0x611C, symBinAddr: 0x100006BD4, symSize: 0x18 }
  - { offsetInCU: 0xE677, offset: 0xE677, size: 0x8, addend: 0x0, symName: __ZNSt3__111char_traitsIcE2eqEcc, symObjAddr: 0x6134, symBinAddr: 0x100006BEC, symSize: 0x28 }
  - { offsetInCU: 0xE6A8, offset: 0xE6A8, size: 0x8, addend: 0x0, symName: __ZNKSt3__112basic_stringIcNS_11char_traitsIcEENS_9allocatorIcEEE8max_sizeB8ue170006Ev, symObjAddr: 0x615C, symBinAddr: 0x100006C14, symSize: 0xAC }
  - { offsetInCU: 0xE6FA, offset: 0xE6FA, size: 0x8, addend: 0x0, symName: __ZNSt3__18ios_base18__setstate_nothrowB8ue170006Ej, symObjAddr: 0x6208, symBinAddr: 0x100006CC0, symSize: 0x64 }
  - { offsetInCU: 0xE72E, offset: 0xE72E, size: 0x8, addend: 0x0, symName: __ZNKSt3__19basic_iosIcNS_11char_traitsIcEEE10exceptionsB8ue170006Ev, symObjAddr: 0x626C, symBinAddr: 0x100006D24, symSize: 0x24 }
  - { offsetInCU: 0xE753, offset: 0xE753, size: 0x8, addend: 0x0, symName: __ZNSt3__111char_traitsIcE6assignB8ue170006ERcRKc, symObjAddr: 0x6290, symBinAddr: 0x100006D48, symSize: 0x24 }
  - { offsetInCU: 0xE784, offset: 0xE784, size: 0x8, addend: 0x0, symName: __ZNSt3__112basic_stringIcNS_11char_traitsIcEENS_9allocatorIcEEE18__get_long_pointerB8ue170006Ev, symObjAddr: 0x62B4, symBinAddr: 0x100006D6C, symSize: 0x28 }
  - { offsetInCU: 0xE7A9, offset: 0xE7A9, size: 0x8, addend: 0x0, symName: __ZNSt3__112basic_stringIcNS_11char_traitsIcEENS_9allocatorIcEEE19__get_short_pointerB8ue170006Ev, symObjAddr: 0x62DC, symBinAddr: 0x100006D94, symSize: 0x28 }
  - { offsetInCU: 0xE7CE, offset: 0xE7CE, size: 0x8, addend: 0x0, symName: __ZNSt3__112basic_stringIcNS_11char_traitsIcEENS_9allocatorIcEEE16__set_short_sizeB8ue170006Em, symObjAddr: 0x6304, symBinAddr: 0x100006DBC, symSize: 0x78 }
  - { offsetInCU: 0xE802, offset: 0xE802, size: 0x8, addend: 0x0, symName: __ZNSt3__114pointer_traitsIPcE10pointer_toB8ue170006ERc, symObjAddr: 0x637C, symBinAddr: 0x100006E34, symSize: 0x14 }
  - { offsetInCU: 0xE825, offset: 0xE825, size: 0x8, addend: 0x0, symName: __ZNSt3__111char_traitsIcE11to_int_typeB8ue170006Ec, symObjAddr: 0x6390, symBinAddr: 0x100006E48, symSize: 0x14 }
  - { offsetInCU: 0xE849, offset: 0xE849, size: 0x8, addend: 0x0, symName: __ZNKSt3__112basic_stringIcNS_11char_traitsIcEENS_9allocatorIcEEE7__allocB8ue170006Ev, symObjAddr: 0x63A4, symBinAddr: 0x100006E5C, symSize: 0x24 }
  - { offsetInCU: 0xE86E, offset: 0xE86E, size: 0x8, addend: 0x0, symName: __ZNSt3__114numeric_limitsImE3maxB8ue170006Ev, symObjAddr: 0x63C8, symBinAddr: 0x100006E80, symSize: 0x14 }
  - { offsetInCU: 0xE882, offset: 0xE882, size: 0x8, addend: 0x0, symName: __ZNKSt3__117__compressed_pairINS_12basic_stringIcNS_11char_traitsIcEENS_9allocatorIcEEE5__repES5_E6secondB8ue170006Ev, symObjAddr: 0x63DC, symBinAddr: 0x100006E94, symSize: 0x24 }
  - { offsetInCU: 0xE8A7, offset: 0xE8A7, size: 0x8, addend: 0x0, symName: __ZNKSt3__122__compressed_pair_elemINS_9allocatorIcEELi1ELb1EE5__getB8ue170006Ev, symObjAddr: 0x6400, symBinAddr: 0x100006EB8, symSize: 0x14 }
  - { offsetInCU: 0xE8CC, offset: 0xE8CC, size: 0x8, addend: 0x0, symName: __ZNSt3__123__libcpp_numeric_limitsImLb1EE3maxB8ue170006Ev, symObjAddr: 0x6414, symBinAddr: 0x100006ECC, symSize: 0x8 }
  - { offsetInCU: 0xE8E0, offset: 0xE8E0, size: 0x8, addend: 0x0, symName: __ZNKSt3__18ios_base10exceptionsB8ue170006Ev, symObjAddr: 0x641C, symBinAddr: 0x100006ED4, symSize: 0x18 }
...
